target datalayout = "e-m:e-p270:32:32-p271:32:32-p272:64:64-i64:64-i128:128-f80:128-n8:16:32:64-S128"
target triple = "x86_64-pc-linux-gnu"

%struct.curve448_scalar_s = type { [7 x i64] }

@sc_p = internal constant [1 x %struct.curve448_scalar_s] [%struct.curve448_scalar_s { [7 x i64] [i64 2556006723728458995, i64 2408513697996967765, i64 -4301259484579875184, i64 -2201345047, i64 -1, i64 -1, i64 4611686018427387903] }], align 16

; Function Attrs: nounwind uwtable
define internal void @sc_subx(ptr noundef %0, ptr noundef %1, ptr noundef %2, ptr noundef %3, i64 noundef %4) #0 {
  %6 = alloca ptr, align 8
  %7 = alloca ptr, align 8
  %8 = alloca ptr, align 8
  %9 = alloca ptr, align 8
  %10 = alloca i64, align 8
  %11 = alloca i128, align 16
  %12 = alloca i32, align 4
  %13 = alloca i64, align 8
  store ptr %0, ptr %6, align 8, !tbaa !3
  store ptr %1, ptr %7, align 8, !tbaa !12
  store ptr %2, ptr %8, align 8, !tbaa !3
  store ptr %3, ptr %9, align 8, !tbaa !3
  store i64 %4, ptr %10, align 8, !tbaa !8
  call void @llvm.lifetime.start.p0(i64 16, ptr %11) #6
  store i128 0, ptr %11, align 16, !tbaa !14
  call void @llvm.lifetime.start.p0(i64 4, ptr %12) #6
  call void @llvm.lifetime.start.p0(i64 8, ptr %13) #6
  store i32 0, ptr %12, align 4, !tbaa !10
  br label %14

14:                                               ; preds = %43, %5
  %15 = load i32, ptr %12, align 4, !tbaa !10
  %16 = icmp ult i32 %15, 7
  br i1 %16, label %17, label %46

17:                                               ; preds = %14
  %18 = load i128, ptr %11, align 16, !tbaa !14
  %19 = load ptr, ptr %7, align 8, !tbaa !12
  %20 = load i32, ptr %12, align 4, !tbaa !10
  %21 = zext i32 %20 to i64
  %22 = getelementptr inbounds nuw i64, ptr %19, i64 %21
  %23 = load i64, ptr %22, align 8, !tbaa !8
  %24 = zext i64 %23 to i128
  %25 = add nsw i128 %18, %24
  %26 = load ptr, ptr %8, align 8, !tbaa !3
  %27 = getelementptr inbounds nuw %struct.curve448_scalar_s, ptr %26, i32 0, i32 0
  %28 = load i32, ptr %12, align 4, !tbaa !10
  %29 = zext i32 %28 to i64
  %30 = getelementptr inbounds nuw [7 x i64], ptr %27, i64 0, i64 %29
  %31 = load i64, ptr %30, align 8, !tbaa !8
  %32 = zext i64 %31 to i128
  %33 = sub nsw i128 %25, %32
  store i128 %33, ptr %11, align 16, !tbaa !14
  %34 = load i128, ptr %11, align 16, !tbaa !14
  %35 = trunc i128 %34 to i64
  %36 = load ptr, ptr %6, align 8, !tbaa !3
  %37 = getelementptr inbounds nuw %struct.curve448_scalar_s, ptr %36, i32 0, i32 0
  %38 = load i32, ptr %12, align 4, !tbaa !10
  %39 = zext i32 %38 to i64
  %40 = getelementptr inbounds nuw [7 x i64], ptr %37, i64 0, i64 %39
  store i64 %35, ptr %40, align 8, !tbaa !8
  %41 = load i128, ptr %11, align 16, !tbaa !14
  %42 = ashr i128 %41, 64
  store i128 %42, ptr %11, align 16, !tbaa !14
  br label %43

43:                                               ; preds = %17
  %44 = load i32, ptr %12, align 4, !tbaa !10
  %45 = add i32 %44, 1
  store i32 %45, ptr %12, align 4, !tbaa !10
  br label %14, !llvm.loop !20

46:                                               ; preds = %14
  %47 = load i128, ptr %11, align 16, !tbaa !14
  %48 = trunc i128 %47 to i64
  %49 = load i64, ptr %10, align 8, !tbaa !8
  %50 = add i64 %48, %49
  store i64 %50, ptr %13, align 8, !tbaa !8
  store i128 0, ptr %11, align 16, !tbaa !14
  store i32 0, ptr %12, align 4, !tbaa !10
  br label %51

51:                                               ; preds = %83, %46
  %52 = load i32, ptr %12, align 4, !tbaa !10
  %53 = icmp ult i32 %52, 7
  br i1 %53, label %54, label %86

54:                                               ; preds = %51
  %55 = load i128, ptr %11, align 16, !tbaa !14
  %56 = load ptr, ptr %6, align 8, !tbaa !3
  %57 = getelementptr inbounds nuw %struct.curve448_scalar_s, ptr %56, i32 0, i32 0
  %58 = load i32, ptr %12, align 4, !tbaa !10
  %59 = zext i32 %58 to i64
  %60 = getelementptr inbounds nuw [7 x i64], ptr %57, i64 0, i64 %59
  %61 = load i64, ptr %60, align 8, !tbaa !8
  %62 = zext i64 %61 to i128
  %63 = add nsw i128 %55, %62
  %64 = load ptr, ptr %9, align 8, !tbaa !3
  %65 = getelementptr inbounds nuw %struct.curve448_scalar_s, ptr %64, i32 0, i32 0
  %66 = load i32, ptr %12, align 4, !tbaa !10
  %67 = zext i32 %66 to i64
  %68 = getelementptr inbounds nuw [7 x i64], ptr %65, i64 0, i64 %67
  %69 = load i64, ptr %68, align 8, !tbaa !8
  %70 = load i64, ptr %13, align 8, !tbaa !8
  %71 = and i64 %69, %70
  %72 = zext i64 %71 to i128
  %73 = add nsw i128 %63, %72
  store i128 %73, ptr %11, align 16, !tbaa !14
  %74 = load i128, ptr %11, align 16, !tbaa !14
  %75 = trunc i128 %74 to i64
  %76 = load ptr, ptr %6, align 8, !tbaa !3
  %77 = getelementptr inbounds nuw %struct.curve448_scalar_s, ptr %76, i32 0, i32 0
  %78 = load i32, ptr %12, align 4, !tbaa !10
  %79 = zext i32 %78 to i64
  %80 = getelementptr inbounds nuw [7 x i64], ptr %77, i64 0, i64 %79
  store i64 %75, ptr %80, align 8, !tbaa !8
  %81 = load i128, ptr %11, align 16, !tbaa !14
  %82 = ashr i128 %81, 64
  store i128 %82, ptr %11, align 16, !tbaa !14
  br label %83

83:                                               ; preds = %54
  %84 = load i32, ptr %12, align 4, !tbaa !10
  %85 = add i32 %84, 1
  store i32 %85, ptr %12, align 4, !tbaa !10
  br label %51, !llvm.loop !21

86:                                               ; preds = %51
  call void @llvm.lifetime.end.p0(i64 8, ptr %13) #6
  call void @llvm.lifetime.end.p0(i64 4, ptr %12) #6
  call void @llvm.lifetime.end.p0(i64 16, ptr %11) #6
  ret void
}

; Function Attrs: nounwind uwtable
define void @ossl_curve448_scalar_sub(ptr noundef %0, ptr noundef %1, ptr noundef %2) #0 {
  %4 = alloca ptr, align 8
  %5 = alloca ptr, align 8
  %6 = alloca ptr, align 8
  store ptr %0, ptr %4, align 8, !tbaa !3
  store ptr %1, ptr %5, align 8, !tbaa !3
  store ptr %2, ptr %6, align 8, !tbaa !3
  %7 = load ptr, ptr %4, align 8, !tbaa !3
  %8 = load ptr, ptr %5, align 8, !tbaa !3
  %9 = getelementptr inbounds nuw %struct.curve448_scalar_s, ptr %8, i32 0, i32 0
  %10 = getelementptr inbounds [7 x i64], ptr %9, i64 0, i64 0
  %11 = load ptr, ptr %6, align 8, !tbaa !3
  call void @sc_subx(ptr noundef %7, ptr noundef %10, ptr noundef %11, ptr noundef @sc_p, i64 noundef 0)
  ret void
}