; Function Attrs: nofree norecurse nosync nounwind memory(argmem: readwrite) uwtable
define void @ossl_curve448_scalar_sub(ptr noundef captures(none) %0, ptr noundef readonly captures(none) %1, ptr noundef readonly captures(none) %2) local_unnamed_addr #0 {
  br label %4

4:                                                ; preds = %4, %3
  %indvars.iv.i = phi i64 [ 0, %3 ], [ %indvars.iv.next.i, %4 ]
  %.02.i = phi i128 [ 0, %3 ], [ %15, %4 ]
  %5 = getelementptr inbounds nuw i64, ptr %1, i64 %indvars.iv.i
  %6 = load i64, ptr %5, align 8, !tbaa !3
  %7 = zext i64 %6 to i128
  %8 = add nsw i128 %.02.i, %7
  %9 = getelementptr inbounds nuw [7 x i64], ptr %2, i64 0, i64 %indvars.iv.i
  %10 = load i64, ptr %9, align 8, !tbaa !3
  %11 = zext i64 %10 to i128
  %12 = sub nsw i128 %8, %11
  %13 = trunc i128 %12 to i64
  %14 = getelementptr inbounds nuw [7 x i64], ptr %0, i64 0, i64 %indvars.iv.i
  store i64 %13, ptr %14, align 8, !tbaa !3
  %15 = ashr i128 %12, 64
  %indvars.iv.next.i = add nuw nsw i64 %indvars.iv.i, 1
  %exitcond.not.i = icmp eq i64 %indvars.iv.next.i, 7
  br i1 %exitcond.not.i, label %16, label %4, !llvm.loop !11

16:                                               ; preds = %4
  %17 = trunc nsw i128 %15 to i64
  br label %18

18:                                               ; preds = %18, %16
  %indvars.iv6.i = phi i64 [ 0, %16 ], [ %indvars.iv.next7.i, %18 ]
  %.14.i = phi i128 [ 0, %16 ], [ %29, %18 ]
  %19 = getelementptr inbounds nuw [7 x i64], ptr %0, i64 0, i64 %indvars.iv6.i
  %20 = load i64, ptr %19, align 8, !tbaa !3
  %21 = zext i64 %20 to i128
  %22 = add nuw nsw i128 %.14.i, %21
  %23 = getelementptr inbounds nuw [7 x i64], ptr @sc_p, i64 0, i64 %indvars.iv6.i
  %24 = load i64, ptr %23, align 8, !tbaa !3
  %25 = and i64 %24, %17
  %26 = zext i64 %25 to i128
  %27 = add nuw nsw i128 %22, %26
  %28 = trunc i128 %27 to i64
  store i64 %28, ptr %19, align 8, !tbaa !3
  %29 = lshr i128 %27, 64
  %indvars.iv.next7.i = add nuw nsw i64 %indvars.iv6.i, 1
  %exitcond9.not.i = icmp eq i64 %indvars.iv.next7.i, 7
  br i1 %exitcond9.not.i, label %sc_subx.exit, label %18, !llvm.loop !12

sc_subx.exit:                                     ; preds = %18
  ret void
}